; Function Attrs: nounwind uwtable
define ptr @l_Lean_Compiler_LCNF_ScopeM_withBackTrackingScope___rarg(ptr noundef %0, ptr noundef %1, ptr noundef %2, ptr noundef %3) #0 {
  %5 = getelementptr inbounds nuw i8, ptr %1, i64 16
  %6 = load ptr, ptr %5, align 8, !tbaa !9
  %7 = ptrtoint ptr %6 to i64
  %8 = and i64 %7, 1
  %.not = icmp eq i64 %8, 0
  br i1 %.not, label %9, label %lean_inc.exit17

9:                                                ; preds = %4
  %.val.i = load i32, ptr %6, align 4, !tbaa !4
  %10 = icmp sgt i32 %.val.i, 0
  br i1 %10, label %11, label %13, !prof !11

11:                                               ; preds = %9
  %12 = add nuw i32 %.val.i, 1
  store i32 %12, ptr %6, align 4, !tbaa !4
  br label %lean_inc.exit17

13:                                               ; preds = %9
  %.not.i = icmp eq i32 %.val.i, 0
  br i1 %.not.i, label %lean_inc.exit17, label %14

14:                                               ; preds = %13
  tail call void @lean_inc_ref_cold(ptr noundef nonnull %6) #3
  br label %lean_inc.exit17

lean_inc.exit17:                                  ; preds = %14, %13, %11, %4
  %15 = load ptr, ptr @l_Lean_Compiler_LCNF_ScopeM_withBackTrackingScope___rarg___closed__1, align 8, !tbaa !9
  %16 = ptrtoint ptr %0 to i64
  %17 = and i64 %16, 1
  %.not21 = icmp eq i64 %17, 0
  br i1 %.not21, label %18, label %lean_inc.exit

18:                                               ; preds = %lean_inc.exit17
  %.val.i18 = load i32, ptr %0, align 4, !tbaa !4
  %19 = icmp sgt i32 %.val.i18, 0
  br i1 %19, label %20, label %22, !prof !11

20:                                               ; preds = %18
  %21 = add nuw i32 %.val.i18, 1
  store i32 %21, ptr %0, align 4, !tbaa !4
  br label %lean_inc.exit

22:                                               ; preds = %18
  %.not.i19 = icmp eq i32 %.val.i18, 0
  br i1 %.not.i19, label %lean_inc.exit, label %23

23:                                               ; preds = %22
  tail call void @lean_inc_ref_cold(ptr noundef nonnull %0) #3
  br label %lean_inc.exit

lean_inc.exit:                                    ; preds = %23, %22, %20, %lean_inc.exit17
  %24 = tail call ptr @lean_apply_2(ptr noundef %0, ptr noundef nonnull inttoptr (i64 1 to ptr), ptr noundef %15) #3
  tail call void @lean_inc_heartbeat() #3
  %25 = tail call noalias ptr @mi_malloc_small(i64 noundef 56) #3
  %26 = icmp eq ptr %25, null
  br i1 %26, label %27, label %lean_alloc_closure.exit

27:                                               ; preds = %lean_inc.exit
  tail call void @lean_internal_panic_out_of_memory() #4
  unreachable

lean_alloc_closure.exit:                          ; preds = %lean_inc.exit
  %28 = getelementptr inbounds nuw i8, ptr %25, i64 4
  store i32 1, ptr %25, align 4, !tbaa !4
  store i32 -184549320, ptr %28, align 4
  %29 = getelementptr inbounds nuw i8, ptr %25, i64 8
  store ptr @l_Lean_Compiler_LCNF_ScopeM_withBackTrackingScope___rarg___lambda__3, ptr %29, align 8, !tbaa !9
  %30 = getelementptr inbounds nuw i8, ptr %25, i64 16
  store i16 5, ptr %30, align 8, !tbaa !12
  %31 = getelementptr inbounds nuw i8, ptr %25, i64 18
  store i16 4, ptr %31, align 2, !tbaa !12
  %32 = getelementptr inbounds nuw i8, ptr %25, i64 24
  store ptr %1, ptr %32, align 8, !tbaa !9
  %33 = getelementptr inbounds nuw i8, ptr %25, i64 32
  store ptr %0, ptr %33, align 8, !tbaa !9
  %34 = getelementptr inbounds nuw i8, ptr %25, i64 40
  store ptr %2, ptr %34, align 8, !tbaa !9
  %35 = getelementptr inbounds nuw i8, ptr %25, i64 48
  store ptr %3, ptr %35, align 8, !tbaa !9
  %36 = tail call ptr @lean_apply_4(ptr noundef %6, ptr noundef nonnull inttoptr (i64 1 to ptr), ptr noundef nonnull inttoptr (i64 1 to ptr), ptr noundef %24, ptr noundef nonnull %25) #3
  ret ptr %36
}